target datalayout = "e-m:e-p270:32:32-p271:32:32-p272:64:64-i64:64-i128:128-f80:128-n8:16:32:64-S128"
target triple = "x86_64-pc-linux-gnu"

%struct.coll_env = type { ptr, %struct.coll_env_coll, i32 }
%struct.coll_env_coll = type { %struct.tMPI_Atomic, %struct.tMPI_Atomic, ptr }
%struct.tMPI_Atomic = type { i32, [60 x i8] }
%struct.coll_env_thread = type { %struct.tMPI_Atomic, %struct.tMPI_Atomic, i32, ptr, ptr, ptr, %struct.tMPI_Event_t, %struct.tMPI_Event_t, ptr }
%struct.tMPI_Event_t = type { %struct.tMPI_Atomic, i32 }

; Function Attrs: mustprogress nounwind uwtable
define internal void @_ZL22tMPI_Coll_envt_destroyP15coll_env_thread(ptr noundef %0) #3 {
  %2 = alloca ptr, align 8
  store ptr %0, ptr %2, align 8, !tbaa !20
  %3 = load ptr, ptr %2, align 8, !tbaa !20
  %4 = getelementptr inbounds nuw %struct.coll_env_thread, ptr %3, i32 0, i32 4
  %5 = load ptr, ptr %4, align 8, !tbaa !29
  call void @free(ptr noundef %5) #7
  %6 = load ptr, ptr %2, align 8, !tbaa !20
  %7 = getelementptr inbounds nuw %struct.coll_env_thread, ptr %6, i32 0, i32 5
  %8 = load ptr, ptr %7, align 8, !tbaa !30
  call void @free(ptr noundef %8) #7
  %9 = load ptr, ptr %2, align 8, !tbaa !20
  %10 = getelementptr inbounds nuw %struct.coll_env_thread, ptr %9, i32 0, i32 8
  %11 = load ptr, ptr %10, align 8, !tbaa !31
  call void @free(ptr noundef %11) #7
  ret void
}

; Function Attrs: mustprogress uwtable
define void @_Z21tMPI_Coll_env_destroyP8coll_env(ptr noundef %0) #0 {
  %2 = alloca ptr, align 8
  %3 = alloca i32, align 4
  store ptr %0, ptr %2, align 8, !tbaa !3
  call void @llvm.lifetime.start.p0(i64 4, ptr %3) #7
  store i32 0, ptr %3, align 4, !tbaa !8
  br label %4

4:                                                ; preds = %17, %1
  %5 = load i32, ptr %3, align 4, !tbaa !8
  %6 = load ptr, ptr %2, align 8, !tbaa !3
  %7 = getelementptr inbounds nuw %struct.coll_env, ptr %6, i32 0, i32 2
  %8 = load i32, ptr %7, align 8, !tbaa !15
  %9 = icmp slt i32 %5, %8
  br i1 %9, label %10, label %20

10:                                               ; preds = %4
  %11 = load ptr, ptr %2, align 8, !tbaa !3
  %12 = getelementptr inbounds nuw %struct.coll_env, ptr %11, i32 0, i32 0
  %13 = load ptr, ptr %12, align 8, !tbaa !10
  %14 = load i32, ptr %3, align 4, !tbaa !8
  %15 = sext i32 %14 to i64
  %16 = getelementptr inbounds %struct.coll_env_thread, ptr %13, i64 %15
  call void @_ZL22tMPI_Coll_envt_destroyP15coll_env_thread(ptr noundef %16)
  br label %17

17:                                               ; preds = %10
  %18 = load i32, ptr %3, align 4, !tbaa !8
  %19 = add nsw i32 %18, 1
  store i32 %19, ptr %3, align 4, !tbaa !8
  br label %4, !llvm.loop !32

20:                                               ; preds = %4
  %21 = load ptr, ptr %2, align 8, !tbaa !3
  %22 = getelementptr inbounds nuw %struct.coll_env, ptr %21, i32 0, i32 0
  %23 = load ptr, ptr %22, align 8, !tbaa !10
  call void @free(ptr noundef %23) #7
  call void @llvm.lifetime.end.p0(i64 4, ptr %3) #7
  ret void
}