; Function Attrs: mustprogress nounwind uwtable
define void @_Z21tMPI_Coll_env_destroyP8coll_env(ptr noundef readonly captures(none) %0) local_unnamed_addr #2 {
  %2 = getelementptr inbounds nuw i8, ptr %0, i64 144
  %3 = load i32, ptr %2, align 8, !tbaa !12
  %4 = icmp sgt i32 %3, 0
  br i1 %4, label %.lr.ph, label %._crit_edge

.lr.ph:                                           ; preds = %1, %.lr.ph
  %indvars.iv = phi i64 [ %indvars.iv.next, %.lr.ph ], [ 0, %1 ]
  %5 = load ptr, ptr %0, align 8, !tbaa !3
  %6 = getelementptr inbounds nuw %struct.coll_env_thread, ptr %5, i64 %indvars.iv
  %7 = getelementptr inbounds nuw i8, ptr %6, i64 144
  %8 = load ptr, ptr %7, align 8, !tbaa !23
  tail call void @free(ptr noundef %8) #8
  %9 = getelementptr inbounds nuw i8, ptr %6, i64 152
  %10 = load ptr, ptr %9, align 8, !tbaa !24
  tail call void @free(ptr noundef %10) #8
  %11 = getelementptr inbounds nuw i8, ptr %6, i64 296
  %12 = load ptr, ptr %11, align 8, !tbaa !25
  tail call void @free(ptr noundef %12) #8
  %indvars.iv.next = add nuw nsw i64 %indvars.iv, 1
  %13 = load i32, ptr %2, align 8, !tbaa !12
  %14 = sext i32 %13 to i64
  %15 = icmp slt i64 %indvars.iv.next, %14
  br i1 %15, label %.lr.ph, label %._crit_edge, !llvm.loop !28

._crit_edge:                                      ; preds = %.lr.ph, %1
  %16 = load ptr, ptr %0, align 8, !tbaa !3
  tail call void @free(ptr noundef %16) #8
  ret void
}